target datalayout = "e-m:e-p270:32:32-p271:32:32-p272:64:64-i64:64-i128:128-f80:128-n8:16:32:64-S128"
target triple = "x86_64-pc-linux-gnu"

%"class.icu_77::UnicodeString" = type { %"class.icu_77::Replaceable", %"union.icu_77::UnicodeString::StackBufferOrFields" }
%"class.icu_77::Replaceable" = type { %"class.icu_77::UObject" }
%"class.icu_77::UObject" = type { ptr }
%"union.icu_77::UnicodeString::StackBufferOrFields" = type { %struct.anon.0, [32 x i8] }
%struct.anon.0 = type { i16, i32, i32, ptr }
%"struct.icu_77::CollationData" = type <{ ptr, ptr, ptr, ptr, ptr, ptr, ptr, i32, i32, i32, i32, ptr, ptr, ptr, i32, i32, ptr, ptr, i32, [4 x i8], ptr, i32, [4 x i8] }>
%"class.icu_77::CollationDataBuilder" = type { %"class.icu_77::UObject", ptr, ptr, ptr, ptr, %"class.icu_77::UVector32", %"class.icu_77::UVector64", %"class.icu_77::UVector", %"class.icu_77::UnicodeSet", %"class.icu_77::UnicodeString", i32, [4 x i8], %"class.icu_77::UnicodeSet", i8, i8, i8, ptr, ptr }
%"class.icu_77::UVector32" = type { %"class.icu_77::UObject", i32, i32, i32, ptr }
%"class.icu_77::UVector64" = type { %"class.icu_77::UObject", i32, i32, i32, ptr }
%"class.icu_77::UVector" = type { %"class.icu_77::UObject", i32, i32, ptr, ptr, ptr }
%"class.icu_77::UnicodeSet" = type <{ %"class.icu_77::UnicodeFilter", ptr, i32, i32, i8, [7 x i8], ptr, ptr, i32, [4 x i8], ptr, i32, [4 x i8], ptr, ptr, [25 x i32], [4 x i8] }>
%"class.icu_77::UnicodeFilter" = type { %"class.icu_77::UnicodeFunctor", %"class.icu_77::UnicodeMatcher" }
%"class.icu_77::UnicodeFunctor" = type { %"class.icu_77::UObject" }
%"class.icu_77::UnicodeMatcher" = type { ptr }

; Function Attrs: mustprogress nounwind uwtable
define linkonce_odr noundef signext i8 @_ZNK6icu_7713CollationData22isCompressibleLeadByteEj(ptr noundef nonnull align 8 dereferenceable(140) %0, i32 noundef %1) #1 comdat align 2 {
  %3 = alloca ptr, align 8
  %4 = alloca i32, align 4
  store ptr %0, ptr %3, align 8, !tbaa !63
  store i32 %1, ptr %4, align 4, !tbaa !57
  %5 = load ptr, ptr %3, align 8
  %6 = getelementptr inbounds nuw %"struct.icu_77::CollationData", ptr %5, i32 0, i32 11
  %7 = load ptr, ptr %6, align 8, !tbaa !82
  %8 = load i32, ptr %4, align 4, !tbaa !57
  %9 = zext i32 %8 to i64
  %10 = getelementptr inbounds nuw i8, ptr %7, i64 %9
  %11 = load i8, ptr %10, align 1, !tbaa !64
  ret i8 %11
}

; Function Attrs: mustprogress uwtable
define noundef signext i8 @_ZNK6icu_7720CollationDataBuilder22isCompressibleLeadByteEj(ptr noundef nonnull align 8 dereferenceable(640) %0, i32 noundef %1) unnamed_addr #4 align 2 {
  %3 = alloca ptr, align 8
  %4 = alloca i32, align 4
  store ptr %0, ptr %3, align 8, !tbaa !13
  store i32 %1, ptr %4, align 4, !tbaa !57
  %5 = load ptr, ptr %3, align 8
  %6 = getelementptr inbounds nuw %"class.icu_77::CollationDataBuilder", ptr %5, i32 0, i32 2
  %7 = load ptr, ptr %6, align 8, !tbaa !55
  %8 = load i32, ptr %4, align 4, !tbaa !57
  %9 = call noundef signext i8 @_ZNK6icu_7713CollationData22isCompressibleLeadByteEj(ptr noundef nonnull align 8 dereferenceable(140) %7, i32 noundef %8)
  ret i8 %9
}